target datalayout = "e-m:e-p270:32:32-p271:32:32-p272:64:64-i64:64-i128:128-f80:128-n8:16:32:64-S128"
target triple = "x86_64-pc-linux-gnu"

%class.Generation = type { ptr, ptr, %class.MemRegion, %class.VirtualSpace, ptr }
%class.VirtualSpace = type { ptr, ptr, ptr, ptr, i8, i8, ptr, ptr, ptr, ptr, ptr, ptr, i64, i64, i64 }
%class.MemRegion = type { ptr, i64 }
%class.DefNewGeneration = type { %class.Generation, ptr, i32, %class.AgeTable, i64, %class.SpanSubjectToDiscoveryClosure, ptr, i8, %class.PromotionFailedInfo, %class.PreservedMarksSet, %class.Stack, i8, ptr, ptr, ptr, ptr, i64, i64, ptr, ptr, ptr, ptr, ptr, %"class.StringDedup::Requests" }
%class.AgeTable = type { [16 x i64], i8, [16 x ptr] }
%class.SpanSubjectToDiscoveryClosure = type { %class.BoolObjectClosure, %class.MemRegion }
%class.BoolObjectClosure = type { ptr }
%class.PromotionFailedInfo = type { %class.CopyFailedInfo.base, i64 }
%class.CopyFailedInfo.base = type <{ ptr, i64, i64, i64, i32 }>
%class.PreservedMarksSet = type { i8, i32, ptr }
%class.Stack = type { ptr, %class.StackBase, ptr, ptr }
%class.StackBase = type { i64, i64, i64, i64, i64, i64 }
%"class.StringDedup::Requests" = type <{ ptr, ptr, i64, i8, [7 x i8] }>
%class.SerialHeap = type { %class.CollectedHeap, ptr, ptr, ptr, ptr, ptr, ptr, ptr, ptr, ptr, ptr, ptr }
%class.CollectedHeap = type { ptr, ptr, i64, i64, %class.SoftRefPolicy, %class.MemRegion, i8, i64, i32, i32, i32, i32, ptr, ptr }
%class.SoftRefPolicy = type { i8, i8 }
%class.ContiguousSpace = type { ptr, ptr, ptr }
%class.GCPolicyCounters = type { ptr, ptr, ptr, ptr, ptr }
%class.PerfData = type { ptr, ptr, i32, i32, i8, i32, ptr, ptr }

@UsePerfData = external global i8, align 1
@TargetSurvivorRatio = external global i32, align 4

; Function Attrs: mustprogress nounwind uwtable
define linkonce_odr hidden noundef i64 @_Z13pointer_deltaPVKvS0_m(ptr noundef %0, ptr noundef %1, i64 noundef %2) #1 comdat {
  %4 = alloca ptr, align 8
  %5 = alloca ptr, align 8
  %6 = alloca i64, align 8
  store ptr %0, ptr %4, align 8
  store ptr %1, ptr %5, align 8
  store i64 %2, ptr %6, align 8
  %7 = load ptr, ptr %4, align 8
  %8 = ptrtoint ptr %7 to i64
  %9 = load ptr, ptr %5, align 8
  %10 = ptrtoint ptr %9 to i64
  %11 = sub i64 %8, %10
  %12 = load i64, ptr %6, align 8
  %13 = udiv i64 %11, %12
  ret i64 %13
}

; Function Attrs: mustprogress nounwind uwtable
define linkonce_odr hidden noundef i64 @_Z9byte_sizePvS_(ptr noundef %0, ptr noundef %1) #1 comdat {
  %3 = alloca ptr, align 8
  %4 = alloca ptr, align 8
  store ptr %0, ptr %3, align 8
  store ptr %1, ptr %4, align 8
  %5 = load ptr, ptr %4, align 8
  %6 = load ptr, ptr %3, align 8
  %7 = call noundef i64 @_Z13pointer_deltaPVKvS0_m(ptr noundef %5, ptr noundef %6, i64 noundef 1)
  ret i64 %7
}

; Function Attrs: mustprogress nounwind uwtable
define linkonce_odr hidden noundef ptr @_ZNK15ContiguousSpace3endEv(ptr noundef nonnull align 8 dereferenceable(24) %0) #1 comdat align 2 {
  %2 = alloca ptr, align 8
  store ptr %0, ptr %2, align 8
  %3 = load ptr, ptr %2, align 8
  %4 = getelementptr inbounds %class.ContiguousSpace, ptr %3, i32 0, i32 1
  %5 = load ptr, ptr %4, align 8
  ret ptr %5
}

; Function Attrs: mustprogress nounwind uwtable
define linkonce_odr hidden noundef ptr @_ZNK15ContiguousSpace6bottomEv(ptr noundef nonnull align 8 dereferenceable(24) %0) #1 comdat align 2 {
  %2 = alloca ptr, align 8
  store ptr %0, ptr %2, align 8
  %3 = load ptr, ptr %2, align 8
  %4 = getelementptr inbounds %class.ContiguousSpace, ptr %3, i32 0, i32 0
  %5 = load ptr, ptr %4, align 8
  ret ptr %5
}

; Function Attrs: mustprogress nounwind uwtable
define linkonce_odr hidden noundef ptr @_ZNK16GCPolicyCounters21desired_survivor_sizeEv(ptr noundef nonnull align 8 dereferenceable(40) %0) #1 comdat align 2 {
  %2 = alloca ptr, align 8
  store ptr %0, ptr %2, align 8
  %3 = load ptr, ptr %2, align 8
  %4 = getelementptr inbounds %class.GCPolicyCounters, ptr %3, i32 0, i32 2
  %5 = load ptr, ptr %4, align 8
  ret ptr %5
}

; Function Attrs: mustprogress nounwind uwtable
define linkonce_odr hidden void @_ZN16PerfLongVariable9set_valueEl(ptr noundef nonnull align 8 dereferenceable(56) %0, i64 noundef %1) #1 comdat align 2 {
  %3 = alloca ptr, align 8
  %4 = alloca i64, align 8
  store ptr %0, ptr %3, align 8
  store i64 %1, ptr %4, align 8
  %5 = load ptr, ptr %3, align 8
  %6 = load i64, ptr %4, align 8
  %7 = getelementptr inbounds %class.PerfData, ptr %5, i32 0, i32 7
  %8 = load ptr, ptr %7, align 8
  store i64 %6, ptr %8, align 8
  ret void
}

; Function Attrs: mustprogress nounwind uwtable
define linkonce_odr hidden noundef ptr @_ZNK16GCPolicyCounters18tenuring_thresholdEv(ptr noundef nonnull align 8 dereferenceable(40) %0) #1 comdat align 2 {
  %2 = alloca ptr, align 8
  store ptr %0, ptr %2, align 8
  %3 = load ptr, ptr %2, align 8
  %4 = getelementptr inbounds %class.GCPolicyCounters, ptr %3, i32 0, i32 1
  %5 = load ptr, ptr %4, align 8
  ret ptr %5
}

; Function Attrs: mustprogress nounwind uwtable
define linkonce_odr hidden noundef ptr @_ZN10SerialHeap8countersEv(ptr noundef nonnull align 8 dereferenceable(192) %0) #1 comdat align 2 {
  %2 = alloca ptr, align 8
  store ptr %0, ptr %2, align 8
  %3 = load ptr, ptr %2, align 8
  %4 = getelementptr inbounds %class.SerialHeap, ptr %3, i32 0, i32 6
  %5 = load ptr, ptr %4, align 8
  ret ptr %5
}

; Function Attrs: mustprogress nounwind uwtable
define linkonce_odr hidden noundef ptr @_ZN16DefNewGeneration9age_tableEv(ptr noundef nonnull align 8 dereferenceable(744) %0) #1 comdat align 2 {
  %2 = alloca ptr, align 8
  store ptr %0, ptr %2, align 8
  %3 = load ptr, ptr %2, align 8
  %4 = getelementptr inbounds %class.DefNewGeneration, ptr %3, i32 0, i32 3
  ret ptr %4
}

; Function Attrs: mustprogress nounwind uwtable
define linkonce_odr hidden noundef i64 @_ZNK15ContiguousSpace8capacityEv(ptr noundef nonnull align 8 dereferenceable(24) %0) #1 comdat align 2 {
  %2 = alloca ptr, align 8
  store ptr %0, ptr %2, align 8
  %3 = load ptr, ptr %2, align 8
  %4 = call noundef ptr @_ZNK15ContiguousSpace6bottomEv(ptr noundef nonnull align 8 dereferenceable(24) %3)
  %5 = call noundef ptr @_ZNK15ContiguousSpace3endEv(ptr noundef nonnull align 8 dereferenceable(24) %3)
  %6 = call noundef i64 @_Z9byte_sizePvS_(ptr noundef %4, ptr noundef %5)
  ret i64 %6
}

; Function Attrs: mustprogress nounwind uwtable
define linkonce_odr hidden noundef ptr @_ZNK16DefNewGeneration2toEv(ptr noundef nonnull align 8 dereferenceable(744) %0) #1 comdat align 2 {
  %2 = alloca ptr, align 8
  store ptr %0, ptr %2, align 8
  %3 = load ptr, ptr %2, align 8
  %4 = getelementptr inbounds %class.DefNewGeneration, ptr %3, i32 0, i32 20
  %5 = load ptr, ptr %4, align 8
  ret ptr %5
}

; Function Attrs: mustprogress nounwind uwtable
define hidden void @_ZN16DefNewGeneration33adjust_desired_tenuring_thresholdEv(ptr noundef nonnull align 8 dereferenceable(744) %0) #1 align 2 {
  %2 = alloca ptr, align 8
  %3 = alloca i64, align 8
  %4 = alloca i64, align 8
  %5 = alloca ptr, align 8
  store ptr %0, ptr %2, align 8
  %6 = load ptr, ptr %2, align 8
  %7 = call noundef ptr @_ZNK16DefNewGeneration2toEv(ptr noundef nonnull align 8 dereferenceable(744) %6)
  %8 = call noundef i64 @_ZNK15ContiguousSpace8capacityEv(ptr noundef nonnull align 8 dereferenceable(24) %7)
  %9 = udiv i64 %8, 8
  store i64 %9, ptr %3, align 8
  %10 = load i64, ptr %3, align 8
  %11 = uitofp i64 %10 to double
  %12 = load i32, ptr @TargetSurvivorRatio, align 4
  %13 = uitofp i32 %12 to double
  %14 = fmul double %11, %13
  %15 = fdiv double %14, 1.000000e+02
  %16 = fptoui double %15 to i64
  store i64 %16, ptr %4, align 8
  %17 = call noundef ptr @_ZN16DefNewGeneration9age_tableEv(ptr noundef nonnull align 8 dereferenceable(744) %6)
  %18 = load i64, ptr %4, align 8
  %19 = call noundef i32 @_ZN8AgeTable26compute_tenuring_thresholdEm(ptr noundef nonnull align 8 dereferenceable(264) %17, i64 noundef %18)
  %20 = getelementptr inbounds %class.DefNewGeneration, ptr %6, i32 0, i32 2
  store i32 %19, ptr %20, align 8
  %21 = load i8, ptr @UsePerfData, align 1
  %22 = trunc i8 %21 to i1
  br i1 %22, label %23, label %35

23:                                               ; preds = %1
  %24 = call noundef ptr @_ZN10SerialHeap4heapEv()
  %25 = call noundef ptr @_ZN10SerialHeap8countersEv(ptr noundef nonnull align 8 dereferenceable(192) %24)
  store ptr %25, ptr %5, align 8
  %26 = load ptr, ptr %5, align 8
  %27 = call noundef ptr @_ZNK16GCPolicyCounters18tenuring_thresholdEv(ptr noundef nonnull align 8 dereferenceable(40) %26)
  %28 = getelementptr inbounds %class.DefNewGeneration, ptr %6, i32 0, i32 2
  %29 = load i32, ptr %28, align 8
  %30 = zext i32 %29 to i64
  call void @_ZN16PerfLongVariable9set_valueEl(ptr noundef nonnull align 8 dereferenceable(56) %27, i64 noundef %30)
  %31 = load ptr, ptr %5, align 8
  %32 = call noundef ptr @_ZNK16GCPolicyCounters21desired_survivor_sizeEv(ptr noundef nonnull align 8 dereferenceable(40) %31)
  %33 = load i64, ptr %4, align 8
  %34 = mul i64 %33, 8
  call void @_ZN16PerfLongVariable9set_valueEl(ptr noundef nonnull align 8 dereferenceable(56) %32, i64 noundef %34)
  br label %35

35:                                               ; preds = %23, %1
  %36 = call noundef ptr @_ZN16DefNewGeneration9age_tableEv(ptr noundef nonnull align 8 dereferenceable(744) %6)
  call void @_ZN8AgeTable15print_age_tableEv(ptr noundef nonnull align 8 dereferenceable(264) %36)
  ret void
}