; Function Attrs: mustprogress nounwind uwtable
define hidden void @_ZN16DefNewGeneration33adjust_desired_tenuring_thresholdEv(ptr noundef nonnull align 8 dereferenceable(744) %0) local_unnamed_addr #0 align 2 {
  %2 = getelementptr inbounds i8, ptr %0, i64 688
  %3 = load ptr, ptr %2, align 8
  %4 = load ptr, ptr %3, align 8
  %5 = getelementptr inbounds i8, ptr %3, i64 8
  %6 = load ptr, ptr %5, align 8
  %7 = ptrtoint ptr %6 to i64
  %8 = ptrtoint ptr %4 to i64
  %9 = sub i64 %7, %8
  %10 = lshr i64 %9, 3
  %11 = uitofp nneg i64 %10 to double
  %12 = load i32, ptr @TargetSurvivorRatio, align 4
  %13 = uitofp i32 %12 to double
  %14 = fmul double %13, %11
  %15 = fdiv double %14, 1.000000e+02
  %16 = fptoui double %15 to i64
  %17 = getelementptr inbounds i8, ptr %0, i64 168
  %18 = tail call noundef i32 @_ZN8AgeTable26compute_tenuring_thresholdEm(ptr noundef nonnull align 8 dereferenceable(264) %17, i64 noundef %16) #19
  %19 = getelementptr inbounds i8, ptr %0, i64 160
  store i32 %18, ptr %19, align 8
  %20 = load i8, ptr @UsePerfData, align 1
  %21 = trunc i8 %20 to i1
  br i1 %21, label %22, label %37

22:                                               ; preds = %1
  %23 = tail call noundef ptr @_ZN10SerialHeap4heapEv() #19
  %24 = getelementptr inbounds i8, ptr %23, i64 144
  %25 = load ptr, ptr %24, align 8
  %26 = getelementptr inbounds i8, ptr %25, i64 8
  %27 = load ptr, ptr %26, align 8
  %28 = load i32, ptr %19, align 8
  %29 = zext i32 %28 to i64
  %30 = getelementptr inbounds i8, ptr %27, i64 40
  %31 = load ptr, ptr %30, align 8
  store i64 %29, ptr %31, align 8
  %32 = getelementptr inbounds i8, ptr %25, i64 16
  %33 = load ptr, ptr %32, align 8
  %34 = shl i64 %16, 3
  %35 = getelementptr inbounds i8, ptr %33, i64 40
  %36 = load ptr, ptr %35, align 8
  store i64 %34, ptr %36, align 8
  br label %37

37:                                               ; preds = %22, %1
  tail call void @_ZN8AgeTable15print_age_tableEv(ptr noundef nonnull align 8 dereferenceable(264) %17) #19
  ret void
}